; Function Attrs: nofree nounwind memory(readwrite, inaccessiblemem: none) uwtable
define internal noundef i32 @H5P__lacc_elink_pref_enc(ptr noundef readonly captures(none) %0, ptr noundef captures(none) %1, ptr noundef captures(none) %2) #4 {
  %4 = load ptr, ptr %0, align 8
  %.not = icmp eq ptr %4, null
  br i1 %.not, label %.thread45, label %5

5:                                                ; preds = %3
  %6 = tail call i64 @strlen(ptr noundef nonnull dereferenceable(1) %4) #9
  %7 = lshr i64 %6, 32
  %.not.i.i = icmp ult i64 %6, 4294967296
  br i1 %.not.i.i, label %34, label %8

8:                                                ; preds = %5
  %9 = lshr i64 %6, 48
  %.not26.i.i = icmp ult i64 %6, 281474976710656
  br i1 %.not26.i.i, label %22, label %10

10:                                               ; preds = %8
  %.not28.i.i = icmp ult i64 %6, 72057594037927936
  br i1 %.not28.i.i, label %17, label %11

11:                                               ; preds = %10
  %12 = lshr i64 %6, 56
  %13 = getelementptr inbounds nuw [256 x i8], ptr @LogTable256, i64 0, i64 %12
  %14 = load i8, ptr %13, align 1
  %15 = zext i8 %14 to i32
  %16 = add nuw nsw i32 %15, 56
  br label %H5VM_limit_enc_size.exit

17:                                               ; preds = %10
  %18 = getelementptr inbounds nuw [256 x i8], ptr @LogTable256, i64 0, i64 %9
  %19 = load i8, ptr %18, align 1
  %20 = zext i8 %19 to i32
  %21 = add nuw nsw i32 %20, 48
  br label %H5VM_limit_enc_size.exit

22:                                               ; preds = %8
  %.not27.i.i = icmp samesign ult i64 %6, 1099511627776
  br i1 %.not27.i.i, label %29, label %23

23:                                               ; preds = %22
  %24 = lshr i64 %6, 40
  %25 = getelementptr inbounds nuw [256 x i8], ptr @LogTable256, i64 0, i64 %24
  %26 = load i8, ptr %25, align 1
  %27 = zext i8 %26 to i32
  %28 = add nuw nsw i32 %27, 40
  br label %H5VM_limit_enc_size.exit

29:                                               ; preds = %22
  %30 = getelementptr inbounds nuw [256 x i8], ptr @LogTable256, i64 0, i64 %7
  %31 = load i8, ptr %30, align 1
  %32 = zext i8 %31 to i32
  %33 = add nuw nsw i32 %32, 32
  br label %H5VM_limit_enc_size.exit

34:                                               ; preds = %5
  %35 = lshr i64 %6, 16
  %.not23.i.i = icmp samesign ult i64 %6, 65536
  br i1 %.not23.i.i, label %48, label %36

36:                                               ; preds = %34
  %.not25.i.i = icmp samesign ult i64 %6, 16777216
  br i1 %.not25.i.i, label %43, label %37

37:                                               ; preds = %36
  %38 = lshr i64 %6, 24
  %39 = getelementptr inbounds nuw [256 x i8], ptr @LogTable256, i64 0, i64 %38
  %40 = load i8, ptr %39, align 1
  %41 = zext i8 %40 to i32
  %42 = add nuw nsw i32 %41, 24
  br label %H5VM_limit_enc_size.exit

43:                                               ; preds = %36
  %44 = getelementptr inbounds nuw [256 x i8], ptr @LogTable256, i64 0, i64 %35
  %45 = load i8, ptr %44, align 1
  %46 = zext i8 %45 to i32
  %47 = add nuw nsw i32 %46, 16
  br label %H5VM_limit_enc_size.exit

48:                                               ; preds = %34
  %.not24.i.i = icmp samesign ult i64 %6, 256
  br i1 %.not24.i.i, label %.thread45, label %49

49:                                               ; preds = %48
  %50 = lshr i64 %6, 8
  %51 = getelementptr inbounds nuw [256 x i8], ptr @LogTable256, i64 0, i64 %50
  %52 = load i8, ptr %51, align 1
  %53 = zext i8 %52 to i32
  %54 = add nuw nsw i32 %53, 8
  br label %H5VM_limit_enc_size.exit

.thread45:                                        ; preds = %3, %48
  %.032404448 = phi i64 [ %6, %48 ], [ 0, %3 ]
  %55 = getelementptr inbounds nuw [256 x i8], ptr @LogTable256, i64 0, i64 %.032404448
  %56 = load i8, ptr %55, align 1
  %57 = zext i8 %56 to i32
  br label %H5VM_limit_enc_size.exit

H5VM_limit_enc_size.exit:                         ; preds = %11, %17, %23, %29, %37, %43, %49, %.thread45
  %.03239 = phi i64 [ %6, %11 ], [ %6, %17 ], [ %6, %23 ], [ %6, %29 ], [ %6, %37 ], [ %6, %43 ], [ %6, %49 ], [ %.032404448, %.thread45 ]
  %.0.i.i = phi i32 [ %16, %11 ], [ %21, %17 ], [ %28, %23 ], [ %33, %29 ], [ %42, %37 ], [ %47, %43 ], [ %54, %49 ], [ %57, %.thread45 ]
  %58 = lshr i32 %.0.i.i, 3
  %59 = load ptr, ptr %1, align 8
  %.not36 = icmp eq ptr %59, null
  br i1 %.not36, label %77, label %60

60:                                               ; preds = %H5VM_limit_enc_size.exit
  %61 = add nuw nsw i32 %58, 1
  %62 = trunc nuw nsw i32 %61 to i8
  %63 = getelementptr inbounds nuw i8, ptr %59, i64 1
  store ptr %63, ptr %1, align 8
  store i8 %62, ptr %59, align 1
  %64 = load ptr, ptr %1, align 8
  %65 = zext nneg i32 %61 to i64
  br label %66

66:                                               ; preds = %60, %66
  %.051 = phi ptr [ %64, %60 ], [ %68, %66 ]
  %.03050 = phi i64 [ 0, %60 ], [ %69, %66 ]
  %.03149 = phi i64 [ %.03239, %60 ], [ %70, %66 ]
  %67 = trunc i64 %.03149 to i8
  %68 = getelementptr inbounds nuw i8, ptr %.051, i64 1
  store i8 %67, ptr %.051, align 1
  %69 = add nuw nsw i64 %.03050, 1
  %70 = lshr i64 %.03149, 8
  %exitcond.not = icmp eq i64 %69, %65
  br i1 %exitcond.not, label %71, label %66

71:                                               ; preds = %66
  %72 = load ptr, ptr %1, align 8
  %73 = getelementptr inbounds nuw i8, ptr %72, i64 %65
  store ptr %73, ptr %1, align 8
  br i1 %.not, label %77, label %74

74:                                               ; preds = %71
  tail call void @llvm.memcpy.p0.p0.i64(ptr nonnull align 1 %73, ptr nonnull align 1 %4, i64 %.03239, i1 false)
  %75 = load ptr, ptr %1, align 8
  %76 = getelementptr inbounds i8, ptr %75, i64 %.03239
  store ptr %76, ptr %1, align 8
  br label %77

77:                                               ; preds = %71, %74, %H5VM_limit_enc_size.exit
  %78 = add nuw nsw i32 %58, 2
  %79 = zext nneg i32 %78 to i64
  %80 = load i64, ptr %2, align 8
  %81 = select i1 %.not, i64 0, i64 %.03239
  %82 = add i64 %81, %79
  %spec.select = add i64 %82, %80
  store i64 %spec.select, ptr %2, align 8
  ret i32 0
}